target datalayout = "e-m:e-p270:32:32-p271:32:32-p272:64:64-i64:64-i128:128-f80:128-n8:16:32:64-S128"
target triple = "x86_64-pc-linux-gnu"

%"class.toku::keyrange" = type <{ %struct.__toku_dbt, %struct.__toku_dbt, ptr, ptr, i8, [7 x i8] }>
%struct.__toku_dbt = type { ptr, i64, i64, i32 }

; Function Attrs: mustprogress uwtable
define void @_ZN4toku8keyrange16replace_left_keyEPK10__toku_dbt(ptr noundef nonnull align 8 dereferenceable(81) %0, ptr noundef %1) #0 align 2 {
  %3 = alloca ptr, align 8
  %4 = alloca ptr, align 8
  store ptr %0, ptr %3, align 8, !tbaa !4
  store ptr %1, ptr %4, align 8, !tbaa !9
  %5 = load ptr, ptr %3, align 8
  %6 = getelementptr inbounds nuw %"class.toku::keyrange", ptr %5, i32 0, i32 4
  %7 = load i8, ptr %6, align 8, !tbaa !18, !range !23, !noundef !24
  %8 = trunc i8 %7 to i1
  br i1 %8, label %9, label %12

9:                                                ; preds = %2
  %10 = getelementptr inbounds nuw %"class.toku::keyrange", ptr %5, i32 0, i32 0
  %11 = getelementptr inbounds nuw %"class.toku::keyrange", ptr %5, i32 0, i32 1
  call void @llvm.memcpy.p0.p0.i64(ptr align 8 %11, ptr align 8 %10, i64 32, i1 false), !tbaa.struct !19
  br label %14

12:                                               ; preds = %2
  %13 = getelementptr inbounds nuw %"class.toku::keyrange", ptr %5, i32 0, i32 0
  call void @_Z16toku_destroy_dbtP10__toku_dbt(ptr noundef %13)
  br label %14

14:                                               ; preds = %12, %9
  %15 = load ptr, ptr %4, align 8, !tbaa !9
  %16 = call noundef zeroext i1 @_Z20toku_dbt_is_infinitePK10__toku_dbt(ptr noundef %15)
  br i1 %16, label %17, label %20

17:                                               ; preds = %14
  %18 = load ptr, ptr %4, align 8, !tbaa !9
  %19 = getelementptr inbounds nuw %"class.toku::keyrange", ptr %5, i32 0, i32 2
  store ptr %18, ptr %19, align 8, !tbaa !11
  br label %25

20:                                               ; preds = %14
  %21 = getelementptr inbounds nuw %"class.toku::keyrange", ptr %5, i32 0, i32 0
  %22 = load ptr, ptr %4, align 8, !tbaa !9
  %23 = call noundef ptr @_Z14toku_clone_dbtP10__toku_dbtRKS_(ptr noundef %21, ptr noundef nonnull align 8 dereferenceable(32) %22)
  %24 = getelementptr inbounds nuw %"class.toku::keyrange", ptr %5, i32 0, i32 2
  store ptr null, ptr %24, align 8, !tbaa !11
  br label %25

25:                                               ; preds = %20, %17
  %26 = getelementptr inbounds nuw %"class.toku::keyrange", ptr %5, i32 0, i32 4
  store i8 0, ptr %26, align 8, !tbaa !18
  ret void
}