; Function Attrs: mustprogress uwtable
define void @_ZN4toku8keyrange16replace_left_keyEPK10__toku_dbt(ptr noundef nonnull align 8 dereferenceable(81) %0, ptr noundef %1) local_unnamed_addr #0 align 2 {
  %3 = getelementptr inbounds nuw i8, ptr %0, i64 80
  %4 = load i8, ptr %3, align 8, !tbaa !4, !range !16, !noundef !17
  %5 = trunc nuw i8 %4 to i1
  br i1 %5, label %6, label %8

6:                                                ; preds = %2
  %7 = getelementptr inbounds nuw i8, ptr %0, i64 32
  tail call void @llvm.memcpy.p0.p0.i64(ptr noundef nonnull align 8 dereferenceable(32) %7, ptr noundef nonnull align 8 dereferenceable(32) %0, i64 32, i1 false), !tbaa.struct !18
  br label %9

8:                                                ; preds = %2
  tail call void @_Z16toku_destroy_dbtP10__toku_dbt(ptr noundef nonnull %0)
  br label %9

9:                                                ; preds = %8, %6
  %10 = tail call noundef zeroext i1 @_Z20toku_dbt_is_infinitePK10__toku_dbt(ptr noundef %1)
  br i1 %10, label %13, label %11

11:                                               ; preds = %9
  %12 = tail call noundef ptr @_Z14toku_clone_dbtP10__toku_dbtRKS_(ptr noundef nonnull %0, ptr noundef nonnull align 8 dereferenceable(32) %1)
  br label %13

13:                                               ; preds = %9, %11
  %.sink = phi ptr [ null, %11 ], [ %1, %9 ]
  %14 = getelementptr inbounds nuw i8, ptr %0, i64 64
  store ptr %.sink, ptr %14, align 8, !tbaa !14
  store i8 0, ptr %3, align 8, !tbaa !4
  ret void
}